target datalayout = "e-m:e-p270:32:32-p271:32:32-p272:64:64-i64:64-i128:128-f80:128-n8:16:32:64-S128"
target triple = "x86_64-pc-linux-gnu"

%struct._zend_executor_globals = type { %struct._zval_struct, %struct._zval_struct, [32 x ptr], ptr, ptr, %struct._zend_array, %struct._zend_array, ptr, i32, i32, ptr, ptr, ptr, ptr, ptr, ptr, i64, ptr, ptr, i32, i32, i64, i32, i32, i32, i8, i8, %struct.zend_atomic_bool_s, %struct.zend_atomic_bool_s, ptr, i64, ptr, ptr, %struct._zend_array, %struct._zend_array, i32, i8, %struct._zval_struct, %struct._zval_struct, %struct._zend_stack, %struct._zend_stack, %struct._zend_stack, ptr, i32, i32, i64, ptr, ptr, ptr, %struct._zend_objects_store, ptr, ptr, ptr, [3 x %struct._zend_op], ptr, i8, i8, i64, i32, i32, ptr, [16 x %struct._HashTableIterator], ptr, %union._zend_function, %struct._zend_op, %struct._zend_array, i64, %struct.zend_get_gc_buffer, ptr, ptr, ptr, i64, i8, i32, ptr, ptr, i64, %struct._zend_call_stack, i64, i64, [6 x ptr] }
%struct.zend_atomic_bool_s = type { i8 }
%struct._zval_struct = type { %union._zend_value, %union.anon, %union.anon.2 }
%union._zend_value = type { i64 }
%union.anon = type { i32 }
%union.anon.2 = type { i32 }
%struct._zend_stack = type { i32, i32, i32, ptr }
%struct._zend_objects_store = type { ptr, i32, i32, i32 }
%struct._HashTableIterator = type { ptr, i32, i32 }
%union._zend_function = type { %struct._zend_op_array }
%struct._zend_op_array = type { i8, [3 x i8], i32, ptr, ptr, ptr, i32, i32, ptr, ptr, ptr, ptr, i32, i32, i32, i32, ptr, ptr, ptr, ptr, ptr, i32, i32, ptr, ptr, ptr, i32, i32, i32, i32, ptr, ptr, [6 x ptr] }
%struct._zend_op = type { ptr, %union._znode_op, %union._znode_op, %union._znode_op, i32, i32, i8, i8, i8, i8 }
%union._znode_op = type { i32 }
%struct._zend_array = type { %struct._zend_refcounted_h, %union.anon.4, i32, %union.anon.6, i32, i32, i32, i32, i64, ptr }
%struct._zend_refcounted_h = type { i32, %union.anon.3 }
%union.anon.3 = type { i32 }
%union.anon.4 = type { i32 }
%union.anon.6 = type { ptr }
%struct.zend_get_gc_buffer = type { ptr, ptr, ptr }
%struct._zend_call_stack = type { ptr, i64 }
%struct._spl_fixedarray_object = type { %struct._spl_fixedarray, ptr, %struct._zend_object }
%struct._spl_fixedarray = type { i64, ptr, i64 }
%struct._zend_object = type { %struct._zend_refcounted_h, i32, ptr, ptr, ptr, [1 x %struct._zval_struct] }
%struct._zend_class_entry = type { i8, ptr, %union.anon.8, i32, i32, i32, i32, ptr, ptr, ptr, %struct._zend_array, %struct._zend_array, %struct._zend_array, ptr, ptr, ptr, ptr, ptr, ptr, ptr, ptr, ptr, ptr, ptr, ptr, ptr, ptr, ptr, ptr, ptr, ptr, ptr, %union.anon.9, ptr, ptr, ptr, ptr, i32, i32, %union.anon.10, ptr, ptr, ptr, ptr, i32, ptr, ptr, %union.anon.11 }
%union.anon.8 = type { ptr }
%union.anon.9 = type { ptr }
%union.anon.10 = type { ptr }
%union.anon.11 = type { %struct.anon.12 }
%struct.anon.12 = type { ptr, i32, i32 }
%struct._zend_class_arrayaccess_funcs = type { ptr, ptr, ptr, ptr }
%struct.anon.7 = type { i8, [3 x i8], i32, ptr, ptr, ptr, i32, i32, ptr, ptr, ptr, ptr, i32 }

@executor_globals = external global %struct._zend_executor_globals, align 8
@spl_ce_SplFixedArray = global ptr null, align 8

; Function Attrs: nounwind uwtable
define internal zeroext i1 @spl_fixedarray_object_has_dimension_helper(ptr noundef %0, ptr noundef %1, i1 noundef zeroext %2) #0 {
  %4 = alloca ptr, align 8
  %5 = alloca i1, align 1
  %6 = alloca ptr, align 8
  %7 = alloca ptr, align 8
  %8 = alloca i8, align 1
  %9 = alloca i64, align 8
  store ptr %0, ptr %6, align 8
  store ptr %1, ptr %7, align 8
  %10 = zext i1 %2 to i8
  store i8 %10, ptr %8, align 1
  %11 = load ptr, ptr %7, align 8
  %12 = call i64 @spl_offset_convert_to_long(ptr noundef %11)
  store i64 %12, ptr %9, align 8
  %13 = load ptr, ptr getelementptr inbounds (%struct._zend_executor_globals, ptr @executor_globals, i32 0, i32 50), align 8
  %14 = icmp ne ptr %13, null
  br i1 %14, label %15, label %16

15:                                               ; preds = %3
  store i1 false, ptr %5, align 1
  br label %51

16:                                               ; preds = %3
  %17 = load i64, ptr %9, align 8
  %18 = icmp slt i64 %17, 0
  br i1 %18, label %26, label %19

19:                                               ; preds = %16
  %20 = load i64, ptr %9, align 8
  %21 = load ptr, ptr %6, align 8
  %22 = getelementptr inbounds %struct._spl_fixedarray_object, ptr %21, i32 0, i32 0
  %23 = getelementptr inbounds %struct._spl_fixedarray, ptr %22, i32 0, i32 0
  %24 = load i64, ptr %23, align 8
  %25 = icmp sge i64 %20, %24
  br i1 %25, label %26, label %27

26:                                               ; preds = %19, %16
  store i1 false, ptr %5, align 1
  br label %51

27:                                               ; preds = %19
  %28 = load i8, ptr %8, align 1
  %29 = trunc i8 %28 to i1
  br i1 %29, label %30, label %39

30:                                               ; preds = %27
  %31 = load ptr, ptr %6, align 8
  %32 = getelementptr inbounds %struct._spl_fixedarray_object, ptr %31, i32 0, i32 0
  %33 = getelementptr inbounds %struct._spl_fixedarray, ptr %32, i32 0, i32 1
  %34 = load ptr, ptr %33, align 8
  %35 = load i64, ptr %9, align 8
  %36 = getelementptr inbounds %struct._zval_struct, ptr %34, i64 %35
  %37 = call i32 @zend_is_true(ptr noundef %36)
  %38 = icmp ne i32 %37, 0
  store i1 %38, ptr %5, align 1
  br label %51

39:                                               ; preds = %27
  %40 = load ptr, ptr %6, align 8
  %41 = getelementptr inbounds %struct._spl_fixedarray_object, ptr %40, i32 0, i32 0
  %42 = getelementptr inbounds %struct._spl_fixedarray, ptr %41, i32 0, i32 1
  %43 = load ptr, ptr %42, align 8
  %44 = load i64, ptr %9, align 8
  %45 = getelementptr inbounds %struct._zval_struct, ptr %43, i64 %44
  store ptr %45, ptr %4, align 8
  %46 = load ptr, ptr %4, align 8
  %47 = getelementptr inbounds %struct._zval_struct, ptr %46, i32 0, i32 1
  %48 = load i8, ptr %47, align 8
  %49 = zext i8 %48 to i32
  %50 = icmp ne i32 %49, 1
  store i1 %50, ptr %5, align 1
  br label %51

51:                                               ; preds = %39, %30, %26, %15
  %52 = load i1, ptr %5, align 1
  ret i1 %52
}

; Function Attrs: nounwind uwtable
define internal ptr @spl_fixed_array_from_obj(ptr noundef %0) #0 {
  %2 = alloca ptr, align 8
  store ptr %0, ptr %2, align 8
  %3 = load ptr, ptr %2, align 8
  %4 = getelementptr inbounds i8, ptr %3, i64 -32
  ret ptr %4
}

; Function Attrs: nounwind uwtable
define internal i32 @spl_fixedarray_object_has_dimension(ptr noundef %0, ptr noundef %1, i32 noundef %2) #0 {
  %4 = alloca ptr, align 8
  %5 = alloca ptr, align 8
  %6 = alloca ptr, align 8
  %7 = alloca i32, align 4
  %8 = alloca ptr, align 8
  %9 = alloca ptr, align 8
  %10 = alloca ptr, align 8
  %11 = alloca ptr, align 8
  %12 = alloca ptr, align 8
  %13 = alloca i32, align 4
  %14 = alloca ptr, align 8
  %15 = alloca ptr, align 8
  %16 = alloca i32, align 4
  %17 = alloca %struct._zval_struct, align 8
  %18 = alloca i8, align 1
  %19 = alloca ptr, align 8
  store ptr %0, ptr %14, align 8
  store ptr %1, ptr %15, align 8
  store i32 %2, ptr %16, align 4
  %20 = load ptr, ptr %14, align 8
  %21 = getelementptr inbounds %struct._zend_object, ptr %20, i32 0, i32 2
  %22 = load ptr, ptr %21, align 8
  %23 = load ptr, ptr @spl_ce_SplFixedArray, align 8
  %24 = icmp ne ptr %22, %23
  br i1 %24, label %25, label %37

25:                                               ; preds = %3
  %26 = load ptr, ptr %14, align 8
  %27 = getelementptr inbounds %struct._zend_object, ptr %26, i32 0, i32 2
  %28 = load ptr, ptr %27, align 8
  %29 = getelementptr inbounds %struct._zend_class_entry, ptr %28, i32 0, i32 31
  %30 = load ptr, ptr %29, align 8
  %31 = getelementptr inbounds %struct._zend_class_arrayaccess_funcs, ptr %30, i32 0, i32 1
  %32 = load ptr, ptr %31, align 8
  %33 = getelementptr inbounds %struct.anon.7, ptr %32, i32 0, i32 4
  %34 = load ptr, ptr %33, align 8
  %35 = load ptr, ptr @spl_ce_SplFixedArray, align 8
  %36 = icmp ne ptr %34, %35
  br label %37

37:                                               ; preds = %25, %3
  %38 = phi i1 [ false, %3 ], [ %36, %25 ]
  %39 = xor i1 %38, true
  %40 = xor i1 %39, true
  %41 = zext i1 %40 to i32
  %42 = sext i32 %41 to i64
  %43 = icmp ne i64 %42, 0
  br i1 %43, label %44, label %72

44:                                               ; preds = %37
  %45 = load ptr, ptr %14, align 8
  %46 = getelementptr inbounds %struct._zend_object, ptr %45, i32 0, i32 2
  %47 = load ptr, ptr %46, align 8
  %48 = getelementptr inbounds %struct._zend_class_entry, ptr %47, i32 0, i32 31
  %49 = load ptr, ptr %48, align 8
  %50 = getelementptr inbounds %struct._zend_class_arrayaccess_funcs, ptr %49, i32 0, i32 1
  %51 = load ptr, ptr %50, align 8
  %52 = load ptr, ptr %14, align 8
  %53 = load ptr, ptr %15, align 8
  store ptr %51, ptr %9, align 8
  store ptr %52, ptr %10, align 8
  store ptr %17, ptr %11, align 8
  store ptr %53, ptr %12, align 8
  %54 = load ptr, ptr %9, align 8
  %55 = load ptr, ptr %10, align 8
  %56 = load ptr, ptr %11, align 8
  %57 = load ptr, ptr %12, align 8
  store ptr %54, ptr %4, align 8
  store ptr %55, ptr %5, align 8
  store ptr %56, ptr %6, align 8
  store i32 1, ptr %7, align 4
  store ptr %57, ptr %8, align 8
  %58 = load ptr, ptr %4, align 8
  %59 = load ptr, ptr %5, align 8
  %60 = load ptr, ptr %5, align 8
  %61 = getelementptr inbounds %struct._zend_object, ptr %60, i32 0, i32 2
  %62 = load ptr, ptr %61, align 8
  %63 = load ptr, ptr %6, align 8
  %64 = load i32, ptr %7, align 4
  %65 = load ptr, ptr %8, align 8
  call void @zend_call_known_function(ptr noundef %58, ptr noundef %59, ptr noundef %62, ptr noundef %63, i32 noundef %64, ptr noundef %65, ptr noundef null) #10
  %66 = call i32 @zend_is_true(ptr noundef %17)
  %67 = icmp ne i32 %66, 0
  %68 = zext i1 %67 to i8
  store i8 %68, ptr %18, align 1
  call void @zval_ptr_dtor(ptr noundef %17)
  %69 = load i8, ptr %18, align 1
  %70 = trunc i8 %69 to i1
  %71 = zext i1 %70 to i32
  store i32 %71, ptr %13, align 4
  br label %81

72:                                               ; preds = %37
  %73 = load ptr, ptr %14, align 8
  %74 = call ptr @spl_fixed_array_from_obj(ptr noundef %73)
  store ptr %74, ptr %19, align 8
  %75 = load ptr, ptr %19, align 8
  %76 = load ptr, ptr %15, align 8
  %77 = load i32, ptr %16, align 4
  %78 = icmp ne i32 %77, 0
  %79 = call zeroext i1 @spl_fixedarray_object_has_dimension_helper(ptr noundef %75, ptr noundef %76, i1 noundef zeroext %78)
  %80 = zext i1 %79 to i32
  store i32 %80, ptr %13, align 4
  br label %81

81:                                               ; preds = %72, %44
  %82 = load i32, ptr %13, align 4
  ret i32 %82
}