; Function Attrs: nounwind uwtable
define internal i32 @spl_fixedarray_object_has_dimension(ptr noundef %0, ptr noundef %1, i32 noundef %2) #0 {
  %4 = alloca %struct._zval_struct, align 8
  %5 = getelementptr inbounds i8, ptr %0, i64 16
  %6 = load ptr, ptr %5, align 8
  %7 = load ptr, ptr @spl_ce_SplFixedArray, align 8
  %.not = icmp eq ptr %6, %7
  br i1 %.not, label %.critedge, label %8

8:                                                ; preds = %3
  %9 = getelementptr inbounds i8, ptr %6, i64 376
  %10 = load ptr, ptr %9, align 8
  %11 = getelementptr inbounds i8, ptr %10, i64 8
  %12 = load ptr, ptr %11, align 8
  %13 = getelementptr inbounds i8, ptr %12, i64 16
  %14 = load ptr, ptr %13, align 8
  %.not22 = icmp eq ptr %14, %7
  br i1 %.not22, label %.critedge, label %15

15:                                               ; preds = %8
  call void @zend_call_known_function(ptr noundef nonnull %12, ptr noundef nonnull %0, ptr noundef nonnull %6, ptr noundef nonnull %4, i32 noundef 1, ptr noundef %1, ptr noundef null) #12
  %16 = call i32 @zend_is_true(ptr noundef nonnull %4) #12
  %17 = icmp ne i32 %16, 0
  call void @zval_ptr_dtor(ptr noundef nonnull %4) #12
  br label %spl_fixedarray_object_has_dimension_helper.exit

.critedge:                                        ; preds = %3, %8
  %.not23 = icmp eq i32 %2, 0
  %18 = tail call fastcc i64 @spl_offset_convert_to_long(ptr noundef %1)
  %19 = load ptr, ptr getelementptr inbounds (%struct._zend_executor_globals, ptr @executor_globals, i64 0, i32 50), align 8
  %.not.i = icmp ne ptr %19, null
  %20 = icmp slt i64 %18, 0
  %or.cond.i = select i1 %.not.i, i1 true, i1 %20
  br i1 %or.cond.i, label %spl_fixedarray_object_has_dimension_helper.exit, label %21

21:                                               ; preds = %.critedge
  %22 = getelementptr inbounds i8, ptr %0, i64 -32
  %23 = load i64, ptr %22, align 8
  %.not11.i = icmp slt i64 %18, %23
  br i1 %.not11.i, label %24, label %spl_fixedarray_object_has_dimension_helper.exit

24:                                               ; preds = %21
  %25 = getelementptr inbounds i8, ptr %0, i64 -24
  %26 = load ptr, ptr %25, align 8
  br i1 %.not23, label %31, label %27

27:                                               ; preds = %24
  %28 = getelementptr inbounds %struct._zval_struct, ptr %26, i64 %18
  %29 = tail call i32 @zend_is_true(ptr noundef %28) #12
  %30 = icmp ne i32 %29, 0
  br label %spl_fixedarray_object_has_dimension_helper.exit

31:                                               ; preds = %24
  %32 = getelementptr inbounds %struct._zval_struct, ptr %26, i64 %18, i32 1
  %33 = load i8, ptr %32, align 8
  %34 = icmp ne i8 %33, 1
  br label %spl_fixedarray_object_has_dimension_helper.exit

spl_fixedarray_object_has_dimension_helper.exit:  ; preds = %31, %27, %21, %.critedge, %15
  %.0.in = phi i1 [ %17, %15 ], [ %30, %27 ], [ %34, %31 ], [ false, %.critedge ], [ false, %21 ]
  %.0 = zext i1 %.0.in to i32
  ret i32 %.0
}